; Function Attrs: mustprogress nofree norecurse nosync nounwind willreturn memory(read, inaccessiblemem: none) uwtable
define dso_local noundef ptr @_ZNK4llvm11VPBlockBase20getExitingBasicBlockEv(ptr noundef nonnull readonly align 8 dereferenceable(112) %0) local_unnamed_addr #6 align 2 {
  %2 = getelementptr inbounds nuw i8, ptr %0, i64 8
  %3 = load i8, ptr %2, align 8
  %.not8 = icmp eq i8 %3, 0
  br i1 %.not8, label %.lr.ph, label %._crit_edge

.lr.ph:                                           ; preds = %1, %.lr.ph
  %.07 = phi ptr [ %5, %.lr.ph ], [ %0, %1 ]
  %4 = getelementptr inbounds nuw i8, ptr %.07, i64 120
  %5 = load ptr, ptr %4, align 8
  %6 = getelementptr inbounds nuw i8, ptr %5, i64 8
  %7 = load i8, ptr %6, align 8
  %8 = icmp ne i8 %7, 0
  %.not6 = icmp eq ptr %5, null
  %.not = or i1 %.not6, %8
  br i1 %.not, label %._crit_edge, label %.lr.ph, !llvm.loop !13

._crit_edge:                                      ; preds = %.lr.ph, %1
  %.0.lcssa = phi ptr [ %0, %1 ], [ %5, %.lr.ph ]
  ret ptr %.0.lcssa
}